target datalayout = "e-m:e-p270:32:32-p271:32:32-p272:64:64-i64:64-i128:128-f80:128-n8:16:32:64-S128"
target triple = "x86_64-pc-linux-gnu"

%class.TypeAryPtr = type <{ %class.TypeOopPtr, ptr, i8, [7 x i8] }>
%class.TypeOopPtr = type { %class.TypePtr.base, ptr, ptr, ptr, i8, i8, i8, i8, i32 }
%class.TypePtr.base = type <{ %class.Type.base, [4 x i8], ptr, i32, i32, i32 }>
%class.Type.base = type <{ ptr, ptr, i32 }>
%class.TypePtr = type <{ %class.Type.base, [4 x i8], ptr, i32, i32, i32, [4 x i8] }>

@UseInlineDepthForSpeculativeTypes = external global i8, align 1

; Function Attrs: mustprogress nounwind uwtable
define linkonce_odr hidden noundef ptr @_ZNK4Type6is_aryEv(ptr noundef nonnull align 8 dereferenceable(20) %0) #1 comdat align 2 {
  %2 = alloca ptr, align 8
  store ptr %0, ptr %2, align 8
  %3 = load ptr, ptr %2, align 8
  ret ptr %3
}

; Function Attrs: mustprogress nounwind uwtable
define hidden noundef ptr @_ZNK10TypeAryPtr17with_inline_depthEi(ptr noundef nonnull align 8 dereferenceable(89) %0, i32 noundef %1) unnamed_addr #1 align 2 {
  %3 = alloca ptr, align 8
  %4 = alloca ptr, align 8
  %5 = alloca i32, align 4
  store ptr %0, ptr %4, align 8
  store i32 %1, ptr %5, align 4
  %6 = load ptr, ptr %4, align 8
  %7 = load i8, ptr @UseInlineDepthForSpeculativeTypes, align 1
  %8 = trunc i8 %7 to i1
  br i1 %8, label %10, label %9

9:                                                ; preds = %2
  store ptr %6, ptr %3, align 8
  br label %35

10:                                               ; preds = %2
  %11 = getelementptr inbounds %class.TypePtr, ptr %6, i32 0, i32 5
  %12 = load i32, ptr %11, align 8
  %13 = getelementptr inbounds %class.TypeOopPtr, ptr %6, i32 0, i32 1
  %14 = load ptr, ptr %13, align 8
  %15 = getelementptr inbounds %class.TypeAryPtr, ptr %6, i32 0, i32 1
  %16 = load ptr, ptr %15, align 8
  %17 = load ptr, ptr %16, align 8
  %18 = getelementptr inbounds ptr, ptr %17, i64 16
  %19 = load ptr, ptr %18, align 8
  %20 = call noundef ptr %19(ptr noundef nonnull align 8 dereferenceable(41) %16)
  %21 = call noundef ptr @_ZNK4Type6is_aryEv(ptr noundef nonnull align 8 dereferenceable(20) %20)
  %22 = getelementptr inbounds %class.TypeOopPtr, ptr %6, i32 0, i32 2
  %23 = load ptr, ptr %22, align 8
  %24 = getelementptr inbounds %class.TypeOopPtr, ptr %6, i32 0, i32 4
  %25 = load i8, ptr %24, align 8
  %26 = trunc i8 %25 to i1
  %27 = getelementptr inbounds %class.TypePtr, ptr %6, i32 0, i32 4
  %28 = load i32, ptr %27, align 4
  %29 = getelementptr inbounds %class.TypeOopPtr, ptr %6, i32 0, i32 8
  %30 = load i32, ptr %29, align 4
  %31 = getelementptr inbounds %class.TypePtr, ptr %6, i32 0, i32 2
  %32 = load ptr, ptr %31, align 8
  %33 = load i32, ptr %5, align 4
  %34 = call noundef ptr @_ZN10TypeAryPtr4makeEN7TypePtr3PTREP8ciObjectPK7TypeAryP7ciKlassbiiPKS0_ib(i32 noundef %12, ptr noundef %14, ptr noundef %21, ptr noundef %23, i1 noundef zeroext %26, i32 noundef %28, i32 noundef %30, ptr noundef %32, i32 noundef %33, i1 noundef zeroext false)
  store ptr %34, ptr %3, align 8
  br label %35

35:                                               ; preds = %10, %9
  %36 = load ptr, ptr %3, align 8
  ret ptr %36
}