; Function Attrs: mustprogress nounwind uwtable
define hidden noundef ptr @_ZNK10TypeAryPtr17with_inline_depthEi(ptr noundef nonnull readonly align 8 dereferenceable(89) %0, i32 noundef %1) unnamed_addr #0 align 2 {
  %3 = load i8, ptr @UseInlineDepthForSpeculativeTypes, align 1
  %4 = trunc i8 %3 to i1
  br i1 %4, label %5, label %28

5:                                                ; preds = %2
  %6 = getelementptr inbounds i8, ptr %0, i64 40
  %7 = load i32, ptr %6, align 8
  %8 = getelementptr inbounds i8, ptr %0, i64 48
  %9 = load ptr, ptr %8, align 8
  %10 = getelementptr inbounds i8, ptr %0, i64 80
  %11 = load ptr, ptr %10, align 8
  %12 = load ptr, ptr %11, align 8
  %13 = getelementptr inbounds i8, ptr %12, i64 128
  %14 = load ptr, ptr %13, align 8
  %15 = tail call noundef ptr %14(ptr noundef nonnull align 8 dereferenceable(41) %11) #17
  %16 = getelementptr inbounds i8, ptr %0, i64 56
  %17 = load ptr, ptr %16, align 8
  %18 = getelementptr inbounds i8, ptr %0, i64 72
  %19 = load i8, ptr %18, align 8
  %20 = trunc i8 %19 to i1
  %21 = getelementptr inbounds i8, ptr %0, i64 36
  %22 = load i32, ptr %21, align 4
  %23 = getelementptr inbounds i8, ptr %0, i64 76
  %24 = load i32, ptr %23, align 4
  %25 = getelementptr inbounds i8, ptr %0, i64 24
  %26 = load ptr, ptr %25, align 8
  %27 = tail call noundef ptr @_ZN10TypeAryPtr4makeEN7TypePtr3PTREP8ciObjectPK7TypeAryP7ciKlassbiiPKS0_ib(i32 noundef %7, ptr noundef %9, ptr noundef %15, ptr noundef %17, i1 noundef zeroext %20, i32 noundef %22, i32 noundef %24, ptr noundef %26, i32 noundef %1, i1 noundef zeroext false)
  br label %28

28:                                               ; preds = %2, %5
  %.0 = phi ptr [ %27, %5 ], [ %0, %2 ]
  ret ptr %.0
}